(lp1
Vi
aVme
p2
aVmy
p3
aVmyself
p4
aVwe
p5
aVour
p6
aVours
p7
aVourselves
p8
aVyou
p9
aVyour
p10
aVyours
p11
aVyourself
p12
aVyourselves
p13
aVhe
p14
aVhim
p15
aVhis
p16
aVhimself
p17
aVshe
p18
aVher
p19
aVhers
p20
aVherself
p21
aVit
p22
aVits
p23
aVitself
p24
aVthey
p25
aVthem
p26
aVtheir
p27
aVtheirs
p28
aVthemselves
p29
aVwhat
p30
aVwhich
p31
aVwho
p32
aVwhom
p33
aVthis
p34
aVthat
p35
aVthese
p36
aVthose
p37
aVam
p38
aVis
p39
aVare
p40
aVwas
p41
aVwere
p42
aVbe
p43
aVbeen
p44
aVbeing
p45
aVhave
p46
aVhas
p47
aVhad
p48
aVhaving
p49
aVdo
p50
aVdoes
p51
aVdid
p52
aVdoing
p53
aVa
aVan
p54
aVthe
p55
aVand
p56
aVbut
p57
aVif
p58
aVor
p59
aVbecause
p60
aVas
p61
aVuntil
p62
aVwhile
p63
aVof
p64
aVat
p65
aVby
p66
aVfor
p67
aVwith
p68
aVabout
p69
aVagainst
p70
aVbetween
p71
aVinto
p72
aVthrough
p73
aVduring
p74
aVbefore
p75
aVafter
p76
aVabove
p77
aVbelow
p78
aVto
p79
aVfrom
p80
aVup
p81
aVdown
p82
aVin
p83
aVout
p84
aVon
p85
aVoff
p86
aVover
p87
aVunder
p88
aVagain
p89
aVfurther
p90
aVthen
p91
aVonce
p92
aVhere
p93
aVthere
p94
aVwhen
p95
aVwhere
p96
aVwhy
p97
aVhow
p98
aVall
p99
aVany
p100
aVboth
p101
aVeach
p102
aVfew
p103
aVmore
p104
aVmost
p105
aVother
p106
aVsome
p107
aVsuch
p108
aVno
p109
aVnor
p110
aVnot
p111
aVonly
p112
aVown
p113
aVsame
p114
aVso
p115
aVthan
p116
aVtoo
p117
aVvery
p118
aVs
aVt
aVcan
p119
aVwill
p120
aVjust
p121
aVdon
p122
aVshould
p123
aVnow
p124
a.